(dp0
VUpdate Lead Information|archimate:ApplicationService
p1
(lp2
S'dbc563d5'
p3
aS'f41931bd'
p4
asVMSMDTA. CONMAS|archimate:DataObject
p5
(lp6
S'd00d8168'
p7
aS'1eaa0e0b'
p8
asVOracle Coherence|archimate:SystemSoftware
p9
(lp10
S'b95b4f4d'
p11
aS'0c58486f'
p12
asVDeed|archimate:AssociationRelationship
p13
(lp14
S'427109cb'
p15
aS'4f7ad66d'
p16
aS'0a6c5df4'
p17
asVJBOSS 5.0.1 Application Servers|archimate:SystemSoftware
p18
(lp19
S'be2800df'
p20
aS'407a9ac3'
p21
asVContract Management - Batch Processing|archimate:DataObject
p22
(lp23
S'42419f6a'
p24
aS'83a83f18'
p25
asVUI Service|archimate:BusinessService
p26
(lp27
S'9906f4e4'
p28
aS'58b83a96'
p29
asVDues|archimate:DataObject
p30
(lp31
S'42ecb4e6'
p32
aS'96c4a19b'
p33
aS'164fcd3b'
p34
asVBusiness Context Model|archimate:Product
p35
(lp36
S'b500de55'
p37
aS'c1c5102a'
p38
asVPresentation|archimate:Product
p39
(lp40
S'5da76445'
p41
aS'069c827f'
p42
aS'c8bd95fb'
p43
asVMember Address|archimate:DataObject
p44
(lp45
S'8da97711'
p46
aS'f97e9076'
p47
asVFulfillment Order|archimate:AssociationRelationship
p48
(lp49
S'd00aff43'
p50
aS'6c475b59'
p51
asVNeo4J|archimate:ApplicationComponent
p52
(lp53
S'25dd6f5b'
p54
aS'dfdcc6e1'
p55
asVCancel Contract|archimate:BusinessProcess
p56
(lp57
S'33262583'
p58
aS'16b03072'
p59
asVLoan Servicing System|archimate:DataObject
p60
(lp61
S'90719a8d'
p62
aS'e8084664'
p63
asVBusiness Services|archimate:ApplicationService
p64
(lp65
S'0a59fd4e'
p66
aS'2cca0440'
p67
aS'c6a10af4'
p68
asVMSMDTA. CMTMAS|archimate:DataObject
p69
(lp70
S'859239c2'
p71
aS'2bb38cd4'
p72
asVTeam's Estimate|archimate:Product
p73
(lp74
S'378c892d'
p75
aS'7653537a'
p76
asVOne View Server|archimate:Node
p77
(lp78
S'3f4f283b'
p79
aS'1fa8661e'
p80
asVInfo|archimate:FlowRelationship
p81
(lp82
S'ae94d17f'
p83
aS'8af85bff'
p84
aS'90790a0e'
p85
aS'23a3f675'
p86
aS'3855b497'
p87
asVBusiness Service|archimate:ApplicationService
p88
(lp89
S'bbe95cad'
p90
aS'a91e218e'
p91
asV2 iMod Servers 5 vCPU x 64GB|archimate:Device
p92
(lp93
S'0ef88bbe'
p94
aS'bfdbdaa8'
p95
asVPromotion|archimate:AssociationRelationship
p96
(lp97
S'504d53fa'
p98
aS'02028e33'
p99
aS'4f0fc527'
p100
aS'f30ea34d'
p101
aS'd5f4f8d7'
p102
aS'4bb6bb48'
p103
aS'5e1886c1'
p104
asVSales Inventory Management|archimate:ArchimateDiagramModel
p105
(lp106
S'7fee1186'
p107
aS'ade46f3b'
p108
asVConfirmation|archimate:UsedByRelationship
p109
(lp110
S'3c844eb1'
p111
aS'8153b4dd'
p112
asVCreate VersionOne Ticket|archimate:BusinessProcess
p113
(lp114
S'5d2c9f9c'
p115
aS'1f450967'
p116
aS'8cf97e74'
p117
asVDVDSFIL. SIUNPF|archimate:DataObject
p118
(lp119
S'26aae0ad'
p120
aS'e8025543'
p121
asVService Protocol|archimate:ApplicationInterface
p122
(lp123
S'2ea75b14'
p124
aS'aa62e05c'
p125
asVPromotion|archimate:FlowRelationship
p126
(lp127
S'8e2f08a4'
p128
aS'f5a05621'
p129
asVVersionOne Ticket|archimate:BusinessObject
p130
(lp131
S'e345101e'
p132
aS'5a44a555'
p133
aS'fae1a580'
p134
asVComplete Scenario|archimate:BusinessEvent
p135
(lp136
S'db5f6da4'
p137
aS'f0d72bc1'
p138
asVMember|archimate:DataObject
p139
(lp140
S'02bb8202'
p141
aS'fb3a193f'
p142
asVHigh Level Scenarios|archimate:ArchimateDiagramModel
p143
(lp144
S'bd69e4aa'
p145
aS'1d483f80'
p146
asVJEE 7|archimate:SystemSoftware
p147
(lp148
S'fd7b0fc3'
p149
aS'51fc0074'
p150
aS'2a4eb382'
p151
asVFY16 (Phase 4)|archimate:WorkPackage
p152
(lp153
S'c2a447d3'
p154
aS'7ac941c4'
p155
asVGap Analysis|archimate:Artifact
p156
(lp157
S'c26c46fa'
p158
aS'be65c927'
p159
asVHandoff|archimate:AssociationRelationship
p160
(lp161
S'00941638'
p162
aS'3dc4e471'
p163
aS'019ee6ba'
p164
asVSales Inventory|archimate:DataObject
p165
(lp166
S'85cd47f4'
p167
aS'c4a64515'
p168
asVContract Management|archimate:ArchimateDiagramModel
p169
(lp170
S'12c80324'
p171
aS'a34182cf'
p172
aS'c2d6512b'
p173
asVPayment|archimate:AssociationRelationship
p174
(lp175
S'41e5230a'
p176
aS'85c892f7'
p177
aS'284a8ebe'
p178
aS'12a88a19'
p179
asVInfo Service - RT|archimate:ApplicationService
p180
(lp181
S'86ff4faf'
p182
aS'88316dce'
p183
asVWebService|archimate:AssociationRelationship
p184
(lp185
S'3af420d4'
p186
aS'929330f1'
p187
aS'2009e0de'
p188
aS'c9bd205d'
p189
aS'c30eda35'
p190
aS'e9c77628'
p191
aS'1be54c6a'
p192
aS'644b5195'
p193
aS'037548ad'
p194
asVJava 1.6.0|archimate:SystemSoftware
p195
(lp196
S'c22065e5'
p197
aS'b2d23257'
p198
asVOrlando Data Center Network|archimate:CommunicationPath
p199
(lp200
S'1fe6bf47'
p201
aS'2aae0790'
p202
aS'95462564'
p203
asVDisneyland Hotel|archimate:Stakeholder
p204
(lp205
S'65e8b977'
p206
aS'8f38a1fe'
p207
aS'1b8d1b35'
p208
aS'753cac8a'
p209
asVContract Management|archimate:ApplicationComponent
p210
(lp211
S'9fbb658f'
p212
aS'5c6f95e0'
p213
asVDVDSFIL. MMCTPF|archimate:DataObject
p214
(lp215
S'd862aeca'
p216
aS'd287b0b7'
p217
asV7 JVMs per server|archimate:SystemSoftware
p218
(lp219
S'733de6da'
p220
aS'dd7045d2'
p221
asVMember Accounting|archimate:BusinessFunction
p222
(lp223
S'652b25c8'
p224
aS'439c3568'
p225
asVDeployment Models|archimate:Product
p226
(lp227
S'8869d9f8'
p228
aS'51fe29c6'
p229
asVExcel|archimate:ApplicationComponent
p230
(lp231
S'b3e65fbc'
p232
aS'9f1188ee'
p233
asVInfo|archimate:AssociationRelationship
p234
(lp235
S'070002af'
p236
aS'5c192734'
p237
aS'f3cf1087'
p238
aS'df8a96da'
p239
aS'28de44f3'
p240
aS'e102d20e'
p241
aS'f5da01c1'
p242
aS'e6686f68'
p243
aS'21835c62'
p244
aS'63726c9f'
p245
asVRules|archimate:Artifact
p246
(lp247
S'fb02571a'
p248
aS'2baa7f3a'
p249
aS'51b91190'
p250
asVMSMDTA. CUSMAS|archimate:DataObject
p251
(lp252
S'70b34f1d'
p253
aS'4823c7bf'
p254
aS'f8586c0d'
p255
asVStatus Codes|archimate:DataObject
p256
(lp257
S'227dd641'
p258
aS'41d39dc5'
p259
asVOption A|archimate:UsedByRelationship
p260
(lp261
S'8fb2fb91'
p262
aS'533136a1'
p263
aS'b321d3e9'
p264
aS'ea7ded34'
p265
aS'22432357'
p266
aS'08b4d2ce'
p267
asVEscrow|archimate:AssociationRelationship
p268
(lp269
S'03470854'
p270
aS'08c1e2dc'
p271
aS'c4e79893'
p272
aS'f7b040f2'
p273
asVFinancial Transactions|archimate:AssociationRelationship
p274
(lp275
S'cc0e5d77'
p276
aS'c1661e4f'
p277
aS'f810ba0d'
p278
aS'c8e2a46d'
p279
aS'93631de3'
p280
asVFinancial Transactions|archimate:FlowRelationship
p281
(lp282
S'8416db8d'
p283
aS'44cf7ebd'
p284
aS'd8dcea72'
p285
asVCredit Check|archimate:AssociationRelationship
p286
(lp287
S'543a7430'
p288
aS'afff704e'
p289
asVSpring 4.x*|archimate:SystemSoftware
p290
(lp291
S'745fd4af'
p292
aS'6b2b7ff9'
p293
aS'8cce4907'
p294
asVSQL|archimate:AssociationRelationship
p295
(lp296
S'65f74ec7'
p297
aS'20a29155'
p298
aS'e5ce02fe'
p299
asVTech Stack Model|archimate:Product
p300
(lp301
S'55e07cc5'
p302
aS'8873ebbf'
p303
asVConduct Tour|archimate:BusinessProcess
p304
(lp305
S'01a922b4'
p306
aS'c6f1fb58'
p307
asVContract Prep-Settlement Fee Processing|archimate:DataObject
p308
(lp309
S'3a6fc7b7'
p310
aS'daeb35d4'
p311
asVContract Preperation|archimate:ArchimateDiagramModel
p312
(lp313
S'd2bbe716'
p314
aS'76c5976c'
p315
asVSystem Context Model|archimate:Product
p316
(lp317
S'2043b68d'
p318
aS'76d0bfc3'
p319
asVInvoice|archimate:FlowRelationship
p320
(lp321
S'f8f16287'
p322
aS'e6ace614'
p323
asVOption B|archimate:UsedByRelationship
p324
(lp325
S'c61febc3'
p326
aS'fead9b2e'
p327
aS'2453b501'
p328
aS'f5073af4'
p329
aS'4816602e'
p330
asVSales|archimate:BusinessFunction
p331
(lp332
S'476f0552'
p333
aS'e01f2686'
p334
as.